; Function Attrs: mustprogress nofree norecurse nosync nounwind willreturn memory(write, argmem: readwrite, inaccessiblemem: none) uwtable
define dso_local range(i32 0, 2) i32 @qtest_fault_resize_message(ptr noundef captures(none) %0, i64 noundef %1) local_unnamed_addr #6 {
  %3 = add i64 %1, 4
  %4 = getelementptr inbounds nuw i8, ptr %0, i64 152
  %5 = load i64, ptr %4, align 8, !tbaa !81
  %6 = getelementptr inbounds nuw i8, ptr %0, i64 144
  %7 = load i64, ptr %6, align 8, !tbaa !82
  %8 = icmp eq i64 %7, 0
  %9 = icmp ugt i64 %3, %7
  %or.cond.i = or i1 %8, %9
  br i1 %or.cond.i, label %qtest_fault_resize_handshake.exit.thread, label %10

10:                                               ; preds = %2
  %11 = icmp ugt i64 %3, %5
  br i1 %11, label %12, label %17

12:                                               ; preds = %10
  %13 = getelementptr inbounds nuw i8, ptr %0, i64 136
  %14 = load ptr, ptr %13, align 8, !tbaa !63
  %15 = getelementptr inbounds nuw i8, ptr %14, i64 %5
  %16 = sub nuw i64 %3, %5
  tail call void @llvm.memset.p0.i64(ptr align 1 %15, i8 0, i64 %16, i1 false)
  br label %17

17:                                               ; preds = %12, %10
  store i64 %3, ptr %4, align 8, !tbaa !81
  %18 = lshr i64 %1, 16
  %19 = trunc i64 %18 to i8
  %20 = getelementptr inbounds nuw i8, ptr %0, i64 136
  %21 = load ptr, ptr %20, align 8, !tbaa !63
  %22 = getelementptr inbounds nuw i8, ptr %21, i64 1
  store i8 %19, ptr %22, align 1, !tbaa !56
  %23 = lshr i64 %1, 8
  %24 = trunc i64 %23 to i8
  %25 = load ptr, ptr %20, align 8, !tbaa !63
  %26 = getelementptr inbounds nuw i8, ptr %25, i64 2
  store i8 %24, ptr %26, align 1, !tbaa !56
  %27 = trunc i64 %1 to i8
  %28 = load ptr, ptr %20, align 8, !tbaa !63
  %29 = getelementptr inbounds nuw i8, ptr %28, i64 3
  store i8 %27, ptr %29, align 1, !tbaa !56
  br label %qtest_fault_resize_handshake.exit.thread

qtest_fault_resize_handshake.exit.thread:         ; preds = %2, %17
  %.0 = phi i32 [ 1, %17 ], [ 0, %2 ]
  ret i32 %.0
}